
Discarded input sections

 .text          0x00000000        0x0 ..\obj\delay.o
 .data          0x00000000        0x0 ..\obj\delay.o
 .bss           0x00000000        0x0 ..\obj\delay.o
 .text          0x00000000        0x0 ..\obj\stm32f10x_tim.o
 .data          0x00000000        0x0 ..\obj\stm32f10x_tim.o
 .bss           0x00000000        0x0 ..\obj\stm32f10x_tim.o
 .text.TIM_DeInit
                0x00000000      0x2b0 ..\obj\stm32f10x_tim.o
 .text.TIM_OC1Init
                0x00000000      0x128 ..\obj\stm32f10x_tim.o
 .text.TIM_OC2Init
                0x00000000      0x128 ..\obj\stm32f10x_tim.o
 .text.TIM_OC3Init
                0x00000000      0x120 ..\obj\stm32f10x_tim.o
 .text.TIM_OC4Init
                0x00000000       0xe0 ..\obj\stm32f10x_tim.o
 .text.TIM_ICInit
                0x00000000       0xa8 ..\obj\stm32f10x_tim.o
 .text.TIM_PWMIConfig
                0x00000000       0xc4 ..\obj\stm32f10x_tim.o
 .text.TIM_BDTRConfig
                0x00000000       0x50 ..\obj\stm32f10x_tim.o
 .text.TIM_OCStructInit
                0x00000000       0x54 ..\obj\stm32f10x_tim.o
 .text.TIM_ICStructInit
                0x00000000       0x3c ..\obj\stm32f10x_tim.o
 .text.TIM_BDTRStructInit
                0x00000000       0x4c ..\obj\stm32f10x_tim.o
 .text.TIM_CtrlPWMOutputs
                0x00000000       0x50 ..\obj\stm32f10x_tim.o
 .text.TIM_GenerateEvent
                0x00000000       0x1c ..\obj\stm32f10x_tim.o
 .text.TIM_DMAConfig
                0x00000000       0x28 ..\obj\stm32f10x_tim.o
 .text.TIM_DMACmd
                0x00000000       0x48 ..\obj\stm32f10x_tim.o
 .text.TIM_InternalClockConfig
                0x00000000       0x24 ..\obj\stm32f10x_tim.o
 .text.TIM_ITRxExternalClockConfig
                0x00000000       0x30 ..\obj\stm32f10x_tim.o
 .text.TIM_TIxExternalClockConfig
                0x00000000       0x58 ..\obj\stm32f10x_tim.o
 .text.TIM_ETRClockMode1Config
                0x00000000       0x54 ..\obj\stm32f10x_tim.o
 .text.TIM_ETRClockMode2Config
                0x00000000       0x34 ..\obj\stm32f10x_tim.o
 .text.TIM_ETRConfig
                0x00000000       0x4c ..\obj\stm32f10x_tim.o
 .text.TIM_PrescalerConfig
                0x00000000       0x28 ..\obj\stm32f10x_tim.o
 .text.TIM_CounterModeConfig
                0x00000000       0x38 ..\obj\stm32f10x_tim.o
 .text.TIM_SelectInputTrigger
                0x00000000       0x38 ..\obj\stm32f10x_tim.o
 .text.TIM_ForcedOC1Config
                0x00000000       0x38 ..\obj\stm32f10x_tim.o
 .text.TIM_ForcedOC2Config
                0x00000000       0x40 ..\obj\stm32f10x_tim.o
 .text.TIM_ForcedOC3Config
                0x00000000       0x38 ..\obj\stm32f10x_tim.o
 .text.TIM_ForcedOC4Config
                0x00000000       0x40 ..\obj\stm32f10x_tim.o
 .text.TIM_ARRPreloadConfig
                0x00000000       0x40 ..\obj\stm32f10x_tim.o
 .text.TIM_SelectCOM
                0x00000000       0x40 ..\obj\stm32f10x_tim.o
 .text.TIM_SelectCCDMA
                0x00000000       0x40 ..\obj\stm32f10x_tim.o
 .text.TIM_CCPreloadControl
                0x00000000       0x40 ..\obj\stm32f10x_tim.o
 .text.TIM_OC1PreloadConfig
                0x00000000       0x38 ..\obj\stm32f10x_tim.o
 .text.TIM_OC2PreloadConfig
                0x00000000       0x40 ..\obj\stm32f10x_tim.o
 .text.TIM_OC3PreloadConfig
                0x00000000       0x38 ..\obj\stm32f10x_tim.o
 .text.TIM_OC4PreloadConfig
                0x00000000       0x40 ..\obj\stm32f10x_tim.o
 .text.TIM_OC1FastConfig
                0x00000000       0x38 ..\obj\stm32f10x_tim.o
 .text.TIM_OC2FastConfig
                0x00000000       0x40 ..\obj\stm32f10x_tim.o
 .text.TIM_OC3FastConfig
                0x00000000       0x38 ..\obj\stm32f10x_tim.o
 .text.TIM_OC4FastConfig
                0x00000000       0x40 ..\obj\stm32f10x_tim.o
 .text.TIM_ClearOC1Ref
                0x00000000       0x38 ..\obj\stm32f10x_tim.o
 .text.TIM_ClearOC2Ref
                0x00000000       0x44 ..\obj\stm32f10x_tim.o
 .text.TIM_ClearOC3Ref
                0x00000000       0x38 ..\obj\stm32f10x_tim.o
 .text.TIM_ClearOC4Ref
                0x00000000       0x44 ..\obj\stm32f10x_tim.o
 .text.TIM_OC1PolarityConfig
                0x00000000       0x38 ..\obj\stm32f10x_tim.o
 .text.TIM_OC1NPolarityConfig
                0x00000000       0x38 ..\obj\stm32f10x_tim.o
 .text.TIM_OC2PolarityConfig
                0x00000000       0x40 ..\obj\stm32f10x_tim.o
 .text.TIM_OC2NPolarityConfig
                0x00000000       0x40 ..\obj\stm32f10x_tim.o
 .text.TIM_OC3PolarityConfig
                0x00000000       0x40 ..\obj\stm32f10x_tim.o
 .text.TIM_OC3NPolarityConfig
                0x00000000       0x40 ..\obj\stm32f10x_tim.o
 .text.TIM_OC4PolarityConfig
                0x00000000       0x40 ..\obj\stm32f10x_tim.o
 .text.TIM_CCxCmd
                0x00000000       0x5c ..\obj\stm32f10x_tim.o
 .text.TIM_CCxNCmd
                0x00000000       0x5c ..\obj\stm32f10x_tim.o
 .text.TIM_SelectOCxM
                0x00000000       0xbc ..\obj\stm32f10x_tim.o
 .text.TIM_UpdateDisableConfig
                0x00000000       0x40 ..\obj\stm32f10x_tim.o
 .text.TIM_UpdateRequestConfig
                0x00000000       0x40 ..\obj\stm32f10x_tim.o
 .text.TIM_SelectHallSensor
                0x00000000       0x40 ..\obj\stm32f10x_tim.o
 .text.TIM_SelectOnePulseMode
                0x00000000       0x38 ..\obj\stm32f10x_tim.o
 .text.TIM_SelectOutputTrigger
                0x00000000       0x38 ..\obj\stm32f10x_tim.o
 .text.TIM_SelectSlaveMode
                0x00000000       0x38 ..\obj\stm32f10x_tim.o
 .text.TIM_SelectMasterSlaveMode
                0x00000000       0x38 ..\obj\stm32f10x_tim.o
 .text.TIM_SetCounter
                0x00000000       0x1c ..\obj\stm32f10x_tim.o
 .text.TIM_SetAutoreload
                0x00000000       0x1c ..\obj\stm32f10x_tim.o
 .text.TIM_SetCompare1
                0x00000000       0x1c ..\obj\stm32f10x_tim.o
 .text.TIM_SetCompare2
                0x00000000       0x1c ..\obj\stm32f10x_tim.o
 .text.TIM_SetCompare3
                0x00000000       0x1c ..\obj\stm32f10x_tim.o
 .text.TIM_SetCompare4
                0x00000000       0x20 ..\obj\stm32f10x_tim.o
 .text.TIM_SetIC1Prescaler
                0x00000000       0x38 ..\obj\stm32f10x_tim.o
 .text.TIM_SetIC2Prescaler
                0x00000000       0x3c ..\obj\stm32f10x_tim.o
 .text.TIM_SetIC3Prescaler
                0x00000000       0x38 ..\obj\stm32f10x_tim.o
 .text.TIM_SetIC4Prescaler
                0x00000000       0x3c ..\obj\stm32f10x_tim.o
 .text.TIM_SetClockDivision
                0x00000000       0x38 ..\obj\stm32f10x_tim.o
 .text.TIM_GetCapture1
                0x00000000       0x1c ..\obj\stm32f10x_tim.o
 .text.TIM_GetCapture2
                0x00000000       0x1c ..\obj\stm32f10x_tim.o
 .text.TIM_GetCapture3
                0x00000000       0x1c ..\obj\stm32f10x_tim.o
 .text.TIM_GetCapture4
                0x00000000       0x1c ..\obj\stm32f10x_tim.o
 .text.TIM_GetCounter
                0x00000000       0x1c ..\obj\stm32f10x_tim.o
 .text.TIM_GetPrescaler
                0x00000000       0x1c ..\obj\stm32f10x_tim.o
 .text.TIM_GetFlagStatus
                0x00000000       0x40 ..\obj\stm32f10x_tim.o
 .text.TIM_ClearFlag
                0x00000000       0x24 ..\obj\stm32f10x_tim.o
 .text.TI1_Config
                0x00000000       0xe4 ..\obj\stm32f10x_tim.o
 .text.TI2_Config
                0x00000000      0x104 ..\obj\stm32f10x_tim.o
 .text.TI3_Config
                0x00000000       0xf4 ..\obj\stm32f10x_tim.o
 .text.TI4_Config
                0x00000000      0x10c ..\obj\stm32f10x_tim.o
 .text          0x00000000        0x0 ..\obj\startup_stm32f10x_md_vl.o
 .data          0x00000000        0x0 ..\obj\startup_stm32f10x_md_vl.o
 .bss           0x00000000        0x0 ..\obj\startup_stm32f10x_md_vl.o
 .text          0x00000000        0x0 ..\obj\core_cm3.o
 .data          0x00000000        0x0 ..\obj\core_cm3.o
 .bss           0x00000000        0x0 ..\obj\core_cm3.o
 .text.__get_PSP
                0x00000000       0x10 ..\obj\core_cm3.o
 .text.__set_PSP
                0x00000000        0x8 ..\obj\core_cm3.o
 .text.__get_MSP
                0x00000000       0x10 ..\obj\core_cm3.o
 .text.__set_MSP
                0x00000000        0x8 ..\obj\core_cm3.o
 .text.__get_BASEPRI
                0x00000000       0x20 ..\obj\core_cm3.o
 .text.__set_BASEPRI
                0x00000000       0x18 ..\obj\core_cm3.o
 .text.__get_PRIMASK
                0x00000000       0x20 ..\obj\core_cm3.o
 .text.__set_PRIMASK
                0x00000000       0x18 ..\obj\core_cm3.o
 .text.__get_FAULTMASK
                0x00000000       0x20 ..\obj\core_cm3.o
 .text.__set_FAULTMASK
                0x00000000       0x18 ..\obj\core_cm3.o
 .text.__get_CONTROL
                0x00000000       0x20 ..\obj\core_cm3.o
 .text.__set_CONTROL
                0x00000000       0x18 ..\obj\core_cm3.o
 .text.__REV    0x00000000       0x24 ..\obj\core_cm3.o
 .text.__REV16  0x00000000       0x24 ..\obj\core_cm3.o
 .text.__REVSH  0x00000000       0x24 ..\obj\core_cm3.o
 .text.__RBIT   0x00000000       0x24 ..\obj\core_cm3.o
 .text.__LDREXB
                0x00000000       0x24 ..\obj\core_cm3.o
 .text.__LDREXH
                0x00000000       0x24 ..\obj\core_cm3.o
 .text.__LDREXW
                0x00000000       0x24 ..\obj\core_cm3.o
 .text.__STREXB
                0x00000000       0x2c ..\obj\core_cm3.o
 .text.__STREXH
                0x00000000       0x2c ..\obj\core_cm3.o
 .text.__STREXW
                0x00000000       0x28 ..\obj\core_cm3.o
 .text          0x00000000        0x0 ..\obj\system_stm32f10x.o
 .bss           0x00000000        0x0 ..\obj\system_stm32f10x.o
 .text.SystemCoreClockUpdate
                0x00000000      0x13c ..\obj\system_stm32f10x.o
 .text          0x00000000        0x0 ..\obj\stm32f10x_gpio.o
 .data          0x00000000        0x0 ..\obj\stm32f10x_gpio.o
 .bss           0x00000000        0x0 ..\obj\stm32f10x_gpio.o
 .text.GPIO_DeInit
                0x00000000      0x128 ..\obj\stm32f10x_gpio.o
 .text.GPIO_AFIODeInit
                0x00000000       0x20 ..\obj\stm32f10x_gpio.o
 .text.GPIO_StructInit
                0x00000000       0x2c ..\obj\stm32f10x_gpio.o
 .text.GPIO_ReadInputDataBit
                0x00000000       0x3c ..\obj\stm32f10x_gpio.o
 .text.GPIO_ReadInputData
                0x00000000       0x1c ..\obj\stm32f10x_gpio.o
 .text.GPIO_ReadOutputDataBit
                0x00000000       0x3c ..\obj\stm32f10x_gpio.o
 .text.GPIO_ReadOutputData
                0x00000000       0x1c ..\obj\stm32f10x_gpio.o
 .text.GPIO_SetBits
                0x00000000       0x1c ..\obj\stm32f10x_gpio.o
 .text.GPIO_ResetBits
                0x00000000       0x1c ..\obj\stm32f10x_gpio.o
 .text.GPIO_Write
                0x00000000       0x1c ..\obj\stm32f10x_gpio.o
 .text.GPIO_PinLockConfig
                0x00000000       0x44 ..\obj\stm32f10x_gpio.o
 .text.GPIO_EventOutputConfig
                0x00000000       0x54 ..\obj\stm32f10x_gpio.o
 .text.GPIO_EventOutputCmd
                0x00000000       0x20 ..\obj\stm32f10x_gpio.o
 .text.GPIO_PinRemapConfig
                0x00000000      0x120 ..\obj\stm32f10x_gpio.o
 .text.GPIO_EXTILineConfig
                0x00000000       0xb4 ..\obj\stm32f10x_gpio.o
 .text.GPIO_ETH_MediaInterfaceConfig
                0x00000000       0x20 ..\obj\stm32f10x_gpio.o
 .text          0x00000000        0x0 ..\obj\main.o
 .text          0x00000000        0x0 ..\obj\stm32f10x_rcc.o
 .data          0x00000000       0x14 ..\obj\stm32f10x_rcc.o
 .bss           0x00000000        0x0 ..\obj\stm32f10x_rcc.o
 .text.RCC_DeInit
                0x00000000       0xac ..\obj\stm32f10x_rcc.o
 .text.RCC_HSEConfig
                0x00000000       0x88 ..\obj\stm32f10x_rcc.o
 .text.RCC_WaitForHSEStartUp
                0x00000000       0x64 ..\obj\stm32f10x_rcc.o
 .text.RCC_AdjustHSICalibrationValue
                0x00000000       0x48 ..\obj\stm32f10x_rcc.o
 .text.RCC_HSICmd
                0x00000000       0x20 ..\obj\stm32f10x_rcc.o
 .text.RCC_PLLConfig
                0x00000000       0x48 ..\obj\stm32f10x_rcc.o
 .text.RCC_PLLCmd
                0x00000000       0x20 ..\obj\stm32f10x_rcc.o
 .text.RCC_PREDIV1Config
                0x00000000       0x4c ..\obj\stm32f10x_rcc.o
 .text.RCC_SYSCLKConfig
                0x00000000       0x40 ..\obj\stm32f10x_rcc.o
 .text.RCC_GetSYSCLKSource
                0x00000000       0x20 ..\obj\stm32f10x_rcc.o
 .text.RCC_HCLKConfig
                0x00000000       0x40 ..\obj\stm32f10x_rcc.o
 .text.RCC_PCLK1Config
                0x00000000       0x40 ..\obj\stm32f10x_rcc.o
 .text.RCC_PCLK2Config
                0x00000000       0x44 ..\obj\stm32f10x_rcc.o
 .text.RCC_ITConfig
                0x00000000       0x60 ..\obj\stm32f10x_rcc.o
 .text.RCC_USBCLKConfig
                0x00000000       0x20 ..\obj\stm32f10x_rcc.o
 .text.RCC_ADCCLKConfig
                0x00000000       0x40 ..\obj\stm32f10x_rcc.o
 .text.RCC_LSEConfig
                0x00000000       0x60 ..\obj\stm32f10x_rcc.o
 .text.RCC_LSICmd
                0x00000000       0x20 ..\obj\stm32f10x_rcc.o
 .text.RCC_RTCCLKConfig
                0x00000000       0x2c ..\obj\stm32f10x_rcc.o
 .text.RCC_RTCCLKCmd
                0x00000000       0x20 ..\obj\stm32f10x_rcc.o
 .text.RCC_GetClocksFreq
                0x00000000      0x1cc ..\obj\stm32f10x_rcc.o
 .text.RCC_AHBPeriphClockCmd
                0x00000000       0x58 ..\obj\stm32f10x_rcc.o
 .text.RCC_APB2PeriphResetCmd
                0x00000000       0x58 ..\obj\stm32f10x_rcc.o
 .text.RCC_APB1PeriphResetCmd
                0x00000000       0x58 ..\obj\stm32f10x_rcc.o
 .text.RCC_BackupResetCmd
                0x00000000       0x20 ..\obj\stm32f10x_rcc.o
 .text.RCC_ClockSecuritySystemCmd
                0x00000000       0x20 ..\obj\stm32f10x_rcc.o
 .text.RCC_MCOConfig
                0x00000000       0x20 ..\obj\stm32f10x_rcc.o
 .text.RCC_GetFlagStatus
                0x00000000       0x90 ..\obj\stm32f10x_rcc.o
 .text.RCC_ClearFlag
                0x00000000       0x24 ..\obj\stm32f10x_rcc.o
 .text.RCC_GetITStatus
                0x00000000       0x40 ..\obj\stm32f10x_rcc.o
 .text.RCC_ClearITPendingBit
                0x00000000       0x20 ..\obj\stm32f10x_rcc.o
 .text          0x00000000        0x0 ..\obj\lcd1602.o
 .data          0x00000000        0x0 ..\obj\lcd1602.o
 .bss           0x00000000        0x0 ..\obj\lcd1602.o
 .rodata        0x00000000       0x14 ..\obj\lcd1602.o
 .text.LCD_PrintH
                0x00000000       0x9c ..\obj\lcd1602.o

Memory Configuration

Name             Origin             Length             Attributes
rom              0x08000000         0x00020000         xr
ram              0x20000000         0x00002000         xrw
*default*        0x00000000         0xffffffff

Linker script and memory map

                0x20002000                _eram = 0x20002000

.text           0x08000000     0x1204
 *(.isr_vector .isr_vector.*)
 .isr_vector    0x08000000      0x124 ..\obj\startup_stm32f10x_md_vl.o
                0x08000000                g_pfnVectors
 *(.text .text.* .gnu.linkonce.t.*)
 .text._init_us
                0x08000124       0x74 ..\obj\delay.o
                0x08000124                _init_us
 .text._init_ms
                0x08000198       0x74 ..\obj\delay.o
                0x08000198                _init_ms
 .text._stop_timer
                0x0800020c       0x14 ..\obj\delay.o
                0x0800020c                _stop_timer
 .text.Delay_ms
                0x08000220       0x38 ..\obj\delay.o
                0x08000220                Delay_ms
 .text.Delay_us
                0x08000258       0x38 ..\obj\delay.o
                0x08000258                Delay_us
 .text.TIM_TimeBaseInit
                0x08000290      0x11c ..\obj\stm32f10x_tim.o
                0x08000290                TIM_TimeBaseInit
 .text.TIM_TimeBaseStructInit
                0x080003ac       0x3c ..\obj\stm32f10x_tim.o
                0x080003ac                TIM_TimeBaseStructInit
 .text.TIM_Cmd  0x080003e8       0x40 ..\obj\stm32f10x_tim.o
                0x080003e8                TIM_Cmd
 .text.TIM_ITConfig
                0x08000428       0x48 ..\obj\stm32f10x_tim.o
                0x08000428                TIM_ITConfig
 .text.TIM_EncoderInterfaceConfig
                0x08000470       0x94 ..\obj\stm32f10x_tim.o
                0x08000470                TIM_EncoderInterfaceConfig
 .text.TIM_GetITStatus
                0x08000504       0x60 ..\obj\stm32f10x_tim.o
                0x08000504                TIM_GetITStatus
 .text.TIM_ClearITPendingBit
                0x08000564       0x24 ..\obj\stm32f10x_tim.o
                0x08000564                TIM_ClearITPendingBit
 .text.Default_Reset_Handler
                0x08000588       0x6c ..\obj\startup_stm32f10x_md_vl.o
                0x08000588                Default_Reset_Handler
                0x08000588                Reset_Handler
 .text.Default_Handler
                0x080005f4        0x8 ..\obj\startup_stm32f10x_md_vl.o
                0x080005f4                EXTI2_IRQHandler
                0x080005f4                DebugMon_Handler
                0x080005f4                TIM1_CC_IRQHandler
                0x080005f4                HardFault_Handler
                0x080005f4                SysTick_Handler
                0x080005f4                PVD_IRQHandler
                0x080005f4                PendSV_Handler
                0x080005f4                NMI_Handler
                0x080005f4                EXTI3_IRQHandler
                0x080005f4                EXTI0_IRQHandler
                0x080005f4                I2C2_EV_IRQHandler
                0x080005f4                TIM1_UP_TIM16_IRQHandler
                0x080005f4                UsageFault_Handler
                0x080005f4                SPI1_IRQHandler
                0x080005f4                TAMPER_IRQHandler
                0x080005f4                TIM6_DAC_IRQHandler
                0x080005f4                DMA1_Channel4_IRQHandler
                0x080005f4                ADC1_IRQHandler
                0x080005f4                USART3_IRQHandler
                0x080005f4                RTC_IRQHandler
                0x080005f4                DMA1_Channel7_IRQHandler
                0x080005f4                TIM4_IRQHandler
                0x080005f4                I2C1_EV_IRQHandler
                0x080005f4                DMA1_Channel6_IRQHandler
                0x080005f4                RCC_IRQHandler
                0x080005f4                DMA1_Channel1_IRQHandler
                0x080005f4                CEC_IRQHandler
                0x080005f4                EXTI15_10_IRQHandler
                0x080005f4                TIM7_IRQHandler
                0x080005f4                EXTI9_5_IRQHandler
                0x080005f4                SPI2_IRQHandler
                0x080005f4                MemManage_Handler
                0x080005f4                SVC_Handler
                0x080005f4                DMA1_Channel5_IRQHandler
                0x080005f4                EXTI4_IRQHandler
                0x080005f4                TIM1_TRG_COM_TIM17_IRQHandler
                0x080005f4                DMA1_Channel3_IRQHandler
                0x080005f4                WWDG_IRQHandler
                0x080005f4                TIM2_IRQHandler
                0x080005f4                EXTI1_IRQHandler
                0x080005f4                RTCAlarm_IRQHandler
                0x080005f4                USART2_IRQHandler
                0x080005f4                I2C2_ER_IRQHandler
                0x080005f4                DMA1_Channel2_IRQHandler
                0x080005f4                FLASH_IRQHandler
                0x080005f4                BusFault_Handler
                0x080005f4                USART1_IRQHandler
                0x080005f4                I2C1_ER_IRQHandler
                0x080005f4                TIM1_BRK_TIM15_IRQHandler
 .text.SystemInit
                0x080005fc       0xb8 ..\obj\system_stm32f10x.o
                0x080005fc                SystemInit
 .text.SetSysClock
                0x080006b4        0xc ..\obj\system_stm32f10x.o
 .text.SetSysClockTo24
                0x080006c0      0x15c ..\obj\system_stm32f10x.o
 .text.GPIO_Init
                0x0800081c      0x1b0 ..\obj\stm32f10x_gpio.o
                0x0800081c                GPIO_Init
 .text.GPIO_WriteBit
                0x080009cc       0x30 ..\obj\stm32f10x_gpio.o
                0x080009cc                GPIO_WriteBit
 .text.NVIC_EnableIRQ
                0x080009fc       0x38 ..\obj\main.o
 .text.NVIC_DisableIRQ
                0x08000a34       0x3c ..\obj\main.o
 .text.TIM3_IRQHandler
                0x08000a70       0x94 ..\obj\main.o
                0x08000a70                TIM3_IRQHandler
 .text.main     0x08000b04      0x2dc ..\obj\main.o
                0x08000b04                main
 .text.RCC_APB2PeriphClockCmd
                0x08000de0       0x58 ..\obj\stm32f10x_rcc.o
                0x08000de0                RCC_APB2PeriphClockCmd
 .text.RCC_APB1PeriphClockCmd
                0x08000e38       0x58 ..\obj\stm32f10x_rcc.o
                0x08000e38                RCC_APB1PeriphClockCmd
 .text.LCD_strobe
                0x08000e90       0x40 ..\obj\lcd1602.o
                0x08000e90                LCD_strobe
 .text.LCD_send_4bit
                0x08000ed0       0xe8 ..\obj\lcd1602.o
                0x08000ed0                LCD_send_4bit
 .text.LCD_cmd_4bit
                0x08000fb8       0x44 ..\obj\lcd1602.o
                0x08000fb8                LCD_cmd_4bit
 .text.LCD_data_4bit
                0x08000ffc       0x58 ..\obj\lcd1602.o
                0x08000ffc                LCD_data_4bit
 .text.LCD_GotoXY
                0x08001054       0x34 ..\obj\lcd1602.o
                0x08001054                LCD_GotoXY
 .text.LCD_Init
                0x08001088       0x58 ..\obj\lcd1602.o
                0x08001088                LCD_Init
 .text.LCD_Cls  0x080010e0       0x28 ..\obj\lcd1602.o
                0x080010e0                LCD_Cls
 .text.LCD_Print
                0x08001108       0x2c ..\obj\lcd1602.o
                0x08001108                LCD_Print
 .text.LCD_PrintI
                0x08001134       0x94 ..\obj\lcd1602.o
                0x08001134                LCD_PrintI
 *(.glue_7t)
 .glue_7t       0x00000000        0x0 linker stubs
 *(.glue_7)
 .glue_7        0x00000000        0x0 linker stubs
 *(.rodata .rodata* .gnu.linkonce.r.*)
 .rodata        0x080011c8       0x3c ..\obj\main.o

.vfp11_veneer   0x08001204        0x0
 .vfp11_veneer  0x00000000        0x0 linker stubs

.v4_bx          0x08001204        0x0
 .v4_bx         0x00000000        0x0 linker stubs

.ARM.extab
 *(.ARM.extab* .gnu.linkonce.armextab.*)
                0x08001204                __exidx_start = .

.ARM.exidx
 *(.ARM.exidx* .gnu.linkonce.armexidx.*)
                0x08001204                __exidx_end = .
                0x08001204                . = ALIGN (0x4)
                0x08001204                _etext = .
                0x08001204                _sidata = .

.data           0x20000000       0x18 load address 0x08001204
                0x20000000                _sdata = .
 *(.data .data.*)
 .data          0x20000000       0x14 ..\obj\system_stm32f10x.o
                0x20000000                SystemCoreClock
                0x20000004                AHBPrescTable
 .data          0x20000014        0x4 ..\obj\main.o
                0x20000014                capture_is_first
                0x20000018                . = ALIGN (0x4)
                0x20000018                _edata = .

.bss            0x20000018        0xc load address 0x0800121c
                0x20000018                _sbss = .
 *(.bss .bss.*)
 .bss           0x20000018        0xc ..\obj\main.o
                0x20000018                capture_is_ready
                0x2000001c                captured_direction
                0x20000020                capture_cntr
 *(COMMON)
                0x20000024                . = ALIGN (0x4)
                0x20000024                _ebss = .

.co_stack       0x20000024      0x404 load address 0x08001228
                0x20000028                . = ALIGN (0x8)
 *fill*         0x20000024        0x4 00
 *(.co_stack .co_stack.*)
 .co_stack      0x20000028      0x400 ..\obj\startup_stm32f10x_md_vl.o
                0x20000028                pulStack
                0x20000428                . = ALIGN (0x4)
                0x20000428                _end = .
LOAD ..\obj\delay.o
LOAD ..\obj\stm32f10x_tim.o
LOAD ..\obj\startup_stm32f10x_md_vl.o
LOAD ..\obj\core_cm3.o
LOAD ..\obj\system_stm32f10x.o
LOAD ..\obj\stm32f10x_gpio.o
LOAD ..\obj\main.o
LOAD ..\obj\stm32f10x_rcc.o
LOAD ..\obj\lcd1602.o
START GROUP
LOAD g:/coide/toolchain/arm-2011.08-coocox/bin/../lib/gcc/arm-none-eabi/4.6.2/armv7-m\libgcc.a
LOAD g:/coide/toolchain/arm-2011.08-coocox/bin/../lib/gcc/arm-none-eabi/4.6.2/../../../../arm-none-eabi/lib/armv7-m\libg.a
LOAD g:/coide/toolchain/arm-2011.08-coocox/bin/../lib/gcc/arm-none-eabi/4.6.2/../../../../arm-none-eabi/lib/armv7-m\libc.a
END GROUP
OUTPUT(pilot1.elf elf32-littlearm)

.debug_info     0x00000000     0x49ca
 .debug_info    0x00000000      0x478 ..\obj\delay.o
 .debug_info    0x00000478     0x1e18 ..\obj\stm32f10x_tim.o
 .debug_info    0x00002290      0x131 ..\obj\startup_stm32f10x_md_vl.o
 .debug_info    0x000023c1      0x548 ..\obj\core_cm3.o
 .debug_info    0x00002909      0x433 ..\obj\system_stm32f10x.o
 .debug_info    0x00002d3c      0x723 ..\obj\stm32f10x_gpio.o
 .debug_info    0x0000345f      0x8fe ..\obj\main.o
 .debug_info    0x00003d5d      0x976 ..\obj\stm32f10x_rcc.o
 .debug_info    0x000046d3      0x2f7 ..\obj\lcd1602.o

.debug_abbrev   0x00000000      0xba2
 .debug_abbrev  0x00000000      0x136 ..\obj\delay.o
 .debug_abbrev  0x00000136      0x172 ..\obj\stm32f10x_tim.o
 .debug_abbrev  0x000002a8       0xa3 ..\obj\startup_stm32f10x_md_vl.o
 .debug_abbrev  0x0000034b       0xd5 ..\obj\core_cm3.o
 .debug_abbrev  0x00000420      0x17e ..\obj\system_stm32f10x.o
 .debug_abbrev  0x0000059e      0x1a4 ..\obj\stm32f10x_gpio.o
 .debug_abbrev  0x00000742      0x1b7 ..\obj\main.o
 .debug_abbrev  0x000008f9      0x191 ..\obj\stm32f10x_rcc.o
 .debug_abbrev  0x00000a8a      0x118 ..\obj\lcd1602.o

.debug_loc      0x00000000     0x27e8
 .debug_loc     0x00000000      0x10c ..\obj\delay.o
 .debug_loc     0x0000010c     0x13e8 ..\obj\stm32f10x_tim.o
 .debug_loc     0x000014f4       0x64 ..\obj\startup_stm32f10x_md_vl.o
 .debug_loc     0x00001558      0x3f0 ..\obj\core_cm3.o
 .debug_loc     0x00001948       0xc8 ..\obj\system_stm32f10x.o
 .debug_loc     0x00001a10      0x3e4 ..\obj\stm32f10x_gpio.o
 .debug_loc     0x00001df4       0xd4 ..\obj\main.o
 .debug_loc     0x00001ec8      0x714 ..\obj\stm32f10x_rcc.o
 .debug_loc     0x000025dc      0x20c ..\obj\lcd1602.o

.debug_aranges  0x00000000      0x6c0
 .debug_aranges
                0x00000000       0x40 ..\obj\delay.o
 .debug_aranges
                0x00000040      0x2f0 ..\obj\stm32f10x_tim.o
 .debug_aranges
                0x00000330       0x28 ..\obj\startup_stm32f10x_md_vl.o
 .debug_aranges
                0x00000358       0xc8 ..\obj\core_cm3.o
 .debug_aranges
                0x00000420       0x38 ..\obj\system_stm32f10x.o
 .debug_aranges
                0x00000458       0xa8 ..\obj\stm32f10x_gpio.o
 .debug_aranges
                0x00000500       0x38 ..\obj\main.o
 .debug_aranges
                0x00000538      0x120 ..\obj\stm32f10x_rcc.o
 .debug_aranges
                0x00000658       0x68 ..\obj\lcd1602.o

.debug_ranges   0x00000000      0x630
 .debug_ranges  0x00000000       0x30 ..\obj\delay.o
 .debug_ranges  0x00000030      0x2e0 ..\obj\stm32f10x_tim.o
 .debug_ranges  0x00000310       0x18 ..\obj\startup_stm32f10x_md_vl.o
 .debug_ranges  0x00000328       0xb8 ..\obj\core_cm3.o
 .debug_ranges  0x000003e0       0x28 ..\obj\system_stm32f10x.o
 .debug_ranges  0x00000408       0x98 ..\obj\stm32f10x_gpio.o
 .debug_ranges  0x000004a0       0x28 ..\obj\main.o
 .debug_ranges  0x000004c8      0x110 ..\obj\stm32f10x_rcc.o
 .debug_ranges  0x000005d8       0x58 ..\obj\lcd1602.o

.debug_line     0x00000000     0x1d2a
 .debug_line    0x00000000      0x1e1 ..\obj\delay.o
 .debug_line    0x000001e1      0xa13 ..\obj\stm32f10x_tim.o
 .debug_line    0x00000bf4       0x9a ..\obj\startup_stm32f10x_md_vl.o
 .debug_line    0x00000c8e      0x272 ..\obj\core_cm3.o
 .debug_line    0x00000f00      0x1e8 ..\obj\system_stm32f10x.o
 .debug_line    0x000010e8      0x32d ..\obj\stm32f10x_gpio.o
 .debug_line    0x00001415      0x247 ..\obj\main.o
 .debug_line    0x0000165c      0x44b ..\obj\stm32f10x_rcc.o
 .debug_line    0x00001aa7      0x283 ..\obj\lcd1602.o

.debug_str      0x00000000     0x1c4c
 .debug_str     0x00000000      0x2c3 ..\obj\delay.o
                                0x2f7 (size before relaxing)
 .debug_str     0x000002c3      0xa7c ..\obj\stm32f10x_tim.o
                                0xd6c (size before relaxing)
 .debug_str     0x00000d3f       0xa8 ..\obj\startup_stm32f10x_md_vl.o
                                0x110 (size before relaxing)
 .debug_str     0x00000de7      0x164 ..\obj\core_cm3.o
                                0x25b (size before relaxing)
 .debug_str     0x00000f4b      0x141 ..\obj\system_stm32f10x.o
                                0x263 (size before relaxing)
 .debug_str     0x0000108c      0x373 ..\obj\stm32f10x_gpio.o
                                0x4a8 (size before relaxing)
 .debug_str     0x000013ff      0x394 ..\obj\main.o
                                0x770 (size before relaxing)
 .debug_str     0x00001793      0x412 ..\obj\stm32f10x_rcc.o
                                0x5fc (size before relaxing)
 .debug_str     0x00001ba5       0xa7 ..\obj\lcd1602.o
                                0x1c6 (size before relaxing)

.comment        0x00000000       0x70
 .comment       0x00000000       0x70 ..\obj\delay.o
                                 0x71 (size before relaxing)
 .comment       0x00000000       0x71 ..\obj\stm32f10x_tim.o
 .comment       0x00000000       0x71 ..\obj\startup_stm32f10x_md_vl.o
 .comment       0x00000000       0x71 ..\obj\core_cm3.o
 .comment       0x00000000       0x71 ..\obj\system_stm32f10x.o
 .comment       0x00000000       0x71 ..\obj\stm32f10x_gpio.o
 .comment       0x00000000       0x71 ..\obj\main.o
 .comment       0x00000000       0x71 ..\obj\stm32f10x_rcc.o
 .comment       0x00000000       0x71 ..\obj\lcd1602.o

.ARM.attributes
                0x00000000       0x33
 .ARM.attributes
                0x00000000       0x33 ..\obj\delay.o
 .ARM.attributes
                0x00000033       0x33 ..\obj\stm32f10x_tim.o
 .ARM.attributes
                0x00000066       0x33 ..\obj\startup_stm32f10x_md_vl.o
 .ARM.attributes
                0x00000099       0x33 ..\obj\core_cm3.o
 .ARM.attributes
                0x000000cc       0x33 ..\obj\system_stm32f10x.o
 .ARM.attributes
                0x000000ff       0x33 ..\obj\stm32f10x_gpio.o
 .ARM.attributes
                0x00000132       0x33 ..\obj\main.o
 .ARM.attributes
                0x00000165       0x33 ..\obj\stm32f10x_rcc.o
 .ARM.attributes
                0x00000198       0x33 ..\obj\lcd1602.o

.debug_frame    0x00000000     0x1590
 .debug_frame   0x00000000       0xac ..\obj\delay.o
 .debug_frame   0x000000ac      0xa20 ..\obj\stm32f10x_tim.o
 .debug_frame   0x00000acc       0x48 ..\obj\startup_stm32f10x_md_vl.o
 .debug_frame   0x00000b14      0x280 ..\obj\core_cm3.o
 .debug_frame   0x00000d94       0x80 ..\obj\system_stm32f10x.o
 .debug_frame   0x00000e14      0x210 ..\obj\stm32f10x_gpio.o
 .debug_frame   0x00001024       0x84 ..\obj\main.o
 .debug_frame   0x000010a8      0x3a4 ..\obj\stm32f10x_rcc.o
 .debug_frame   0x0000144c      0x144 ..\obj\lcd1602.o
